; Function Attrs: nounwind uwtable
define signext i8 @CORD_pos_fetch(ptr noundef readonly captures(none) %0) local_unnamed_addr #2 {
  %2 = getelementptr inbounds nuw i8, ptr %0, i64 32
  %3 = load i64, ptr %2, align 8, !tbaa !57
  %.not = icmp eq i64 %3, 0
  br i1 %.not, label %13, label %4

4:                                                ; preds = %1
  %5 = getelementptr inbounds nuw i8, ptr %0, i64 16
  %6 = load ptr, ptr %5, align 8, !tbaa !56
  %7 = load i64, ptr %0, align 8, !tbaa !52
  %8 = getelementptr inbounds nuw i8, ptr %0, i64 24
  %9 = load i64, ptr %8, align 8, !tbaa !55
  %10 = sub i64 %7, %9
  %11 = getelementptr inbounds nuw i8, ptr %6, i64 %10
  %12 = load i8, ptr %11, align 1, !tbaa !11
  br label %39

13:                                               ; preds = %1
  %14 = getelementptr inbounds nuw i8, ptr %0, i64 8
  %15 = load i32, ptr %14, align 8, !tbaa !47
  %.not.i = icmp eq i32 %15, 1431655765
  br i1 %.not.i, label %16, label %19

16:                                               ; preds = %13
  %17 = load ptr, ptr @stderr, align 8, !tbaa !7
  %18 = tail call i32 (ptr, ptr, ...) @fprintf(ptr noundef %17, ptr noundef nonnull @.str, ptr noundef nonnull @.str.4) #20
  tail call void @abort() #21
  unreachable

19:                                               ; preds = %13
  %20 = getelementptr inbounds nuw i8, ptr %0, i64 40
  %21 = sext i32 %15 to i64
  %22 = getelementptr inbounds [49 x %struct.CORD_pe], ptr %20, i64 0, i64 %21
  %23 = load ptr, ptr %22, align 8, !tbaa !50
  %24 = getelementptr inbounds nuw i8, ptr %23, i64 1
  %25 = load i8, ptr %24, align 1, !tbaa !13
  %26 = and i8 %25, 4
  %.not10.i = icmp eq i8 %26, 0
  br i1 %.not10.i, label %27, label %CORD__pos_fetch.exit

27:                                               ; preds = %19
  %28 = load ptr, ptr @stderr, align 8, !tbaa !7
  %29 = tail call i32 (ptr, ptr, ...) @fprintf(ptr noundef %28, ptr noundef nonnull @.str, ptr noundef nonnull @.str.5) #20
  tail call void @abort() #21
  unreachable

CORD__pos_fetch.exit:                             ; preds = %19
  %30 = getelementptr inbounds nuw i8, ptr %23, i64 16
  %31 = load ptr, ptr %30, align 8, !tbaa !23
  %32 = load i64, ptr %0, align 8, !tbaa !52
  %33 = getelementptr inbounds nuw i8, ptr %22, i64 8
  %34 = load i64, ptr %33, align 8, !tbaa !53
  %35 = sub i64 %32, %34
  %36 = getelementptr inbounds nuw i8, ptr %23, i64 24
  %37 = load ptr, ptr %36, align 8, !tbaa !25
  %38 = tail call signext i8 %31(i64 noundef %35, ptr noundef %37) #17
  br label %39

39:                                               ; preds = %CORD__pos_fetch.exit, %4
  %.0 = phi i8 [ %12, %4 ], [ %38, %CORD__pos_fetch.exit ]
  ret i8 %.0
}